(dp0
cnumpy.core.multiarray
scalar
p1
(cnumpy
dtype
p2
(S'i4'
p3
I0
I1
tp4
Rp5
(I3
S'<'
p6
NNNI-1
I-1
I0
tp7
bS'\x02\xc8\x02\x00'
p8
tp9
Rp10
Vlambda
p11
sg1
(g5
S'\x0f\x02\x00\x00'
p12
tp13
Rp14
V'
p15
sg1
(g5
S'\x15\x04\x00\x00'
p16
tp17
Rp18
Vname
p19
sg1
(g5
S'\x17\x02\x00\x00'
p20
tp21
Rp22
V-
p23
sg1
(g5
S'\x19\x04\x00\x00'
p24
tp25
Rp26
Vtop
p27
sg1
(g5
S'\x1d\x0e\x00\x00'
p28
tp29
Rp30
Vmatch
p31
sg1
(g5
S'"\xd2\x04\x00'
p32
tp33
Rp34
Vrang
p35
sg1
(g5
S'-\x0e\x00\x00'
p36
tp37
Rp38
Vblock
p39
sg1
(g5
S'4\xe2\x03\x00'
p40
tp41
Rp42
Vflatten
p43
sg1
(g5
S'6\x14\x00\x00'
p44
tp45
Rp46
Vlowest
p47
sg1
(g5
S'9\n\x00\x00'
p48
tp49
Rp50
Vels
p51
sg1
(g5
S'G\x08\x00\x00'
p52
tp53
Rp54
Vkey
p55
sg1
(g5
S'N\x06\x00\x00'
p56
tp57
Rp58
Vdata
p59
sg1
(g5
S'T\x1e\x00\x00'
p60
tp61
Rp62
Vdef
p63
sg1
(g5
S'Z\x02\x00\x00'
p64
tp65
Rp66
Vone
p67
sg1
(g5
S'j\x04\x00\x00'
p68
tp69
Rp70
Vlink
p71
sg1
(g5
S'p\x04\x00\x00'
p72
tp73
Rp74
V=
p75
sg1
(g5
S'q\x04\x00\x00'
p76
tp77
Rp78
Vnon
p79
sg1
(g5
S'r\x0e\x00\x00'
p80
tp81
Rp82
Vsplit
p83
sg1
(g5
S'u\x04\x00\x00'
p84
tp85
Rp86
Vline
p87
sg1
(g5
S'{\x0c\x00\x00'
p88
tp89
Rp90
Vjoin
p91
sg1
(g5
S'\x7f\x06\x00\x00'
p92
tp93
Rp94
Vresult
p95
sg1
(g5
S'\x82\x0c\x00\x00'
p96
tp97
Rp98
Vload
p99
sg1
(g5
S'\x85\x06\x00\x00'
p100
tp101
Rp102
Vexplain
p103
sg1
(g5
S'\x8f\x08\x00\x00'
p104
tp105
Rp106
Vnone
p107
sg1
(g5
S'\x91\x02\x00\x00'
p108
tp109
Rp110
Vcould
p111
sg1
(g5
S'\x93\x02\x00\x00'
p112
tp113
Rp114
Vr
p115
sg1
(g5
S'\x96\x06\x00\x00'
p116
tp117
Rp118
Vwritten
p119
sg1
(g5
S'\x9f\x08\x00\x00'
p120
tp121
Rp122
Vfile
p123
sg1
(g5
S'\xa6\x02\x00\x00'
p124
tp125
Rp126
Vsee
p127
sg1
(g5
S'\xb3\x04\x00\x00'
p128
tp129
Rp130
Vlevel
p131
sg1
(g5
S'\x1f\x0b\x00\x00'
p132
tp133
Rp134
Vapproach
p135
sg1
(g5
S'\xbe\x04\x00\x00'
p136
tp137
Rp138
Vsort
p139
sg1
(g5
S'"\x02\x00\x00'
p140
tp141
Rp142
V*
p143
sg1
(g5
S'\xcd\xa4\x08\x00'
p144
tp145
Rp146
V_
p147
sg1
(g5
S'\xd0\x02\x00\x00'
p148
tp149
Rp150
Vstill
p151
sg1
(g5
S'\xd6\x82\x00\x00'
p152
tp153
Rp154
Vappend
p155
sg1
(g5
S'$\xdb\x0b\x00'
p156
tp157
Rp158
Vmemori
p159
sg1
(g5
S'\xe2\x14\x00\x00'
p160
tp161
Rp162
Vcollect
p163
sg1
(g5
S'\xe3\x04\x00\x00'
p164
tp165
Rp166
Vcurrent
p167
sg1
(g5
S'\xe9\x04\x00\x00'
p168
tp169
Rp170
Vopen
p171
sg1
(g5
S'\xeb\x02\x00\x00'
p172
tp173
Rp174
Vwork
p175
sg1
(g5
S'\xecf\x05\x00'
p176
tp177
Rp178
Vmd
p179
sg1
(g5
S'\xee\x04\x00\x00'
p180
tp181
Rp182
Vcode
p183
sg1
(g5
S'\xf6\x08\x01\x00'
p184
tp185
Rp186
V^
p187
sg1
(g5
S'*\xdb\x0b\x00'
p188
tp189
Rp190
Vsepar
p191
sg1
(g5
S'\xff\x02\x00\x00'
p192
tp193
Rp194
Vback
p195
sg1
(g5
S'\x02\x07\x00\x00'
p196
tp197
Rp198
Vlower
p199
sg1
(g5
S'+\xdb\x0b\x00'
p200
tp201
Rp202
Vtabl
p203
sg1
(g5
S'\x06\x03\x00\x00'
p204
tp205
Rp206
Vfirst
p207
sg1
(g5
S'\n\x05\x00\x00'
p208
tp209
Rp210
Vorder
p211
sg1
(g5
S'\x14\xdb\x0b\x00'
p212
tp213
Rp214
Vutf-8
p215
sg1
(g5
S'\x15\xdb\x0b\x00'
p216
tp217
Rp218
Vdecid
p219
sg1
(g5
S'\x16\xdb\x0b\x00'
p220
tp221
Rp222
Vsimpli
p223
sg1
(g5
S'\x17\xdb\x0b\x00'
p224
tp225
Rp226
Viniti
p227
sg1
(g5
S'\x18\xdb\x0b\x00'
p228
tp229
Rp230
Vconsid
p231
sg1
(g5
S'\x19\xdb\x0b\x00'
p232
tp233
Rp234
Vstructur
p235
sg1
(g5
S'\x1a\xdb\x0b\x00'
p236
tp237
Rp238
Vgener
p239
sg1
(g5
S'\x1b\xdb\x0b\x00'
p240
tp241
Rp242
Vappropri
p243
sg1
(g5
S'\x1c\xdb\x0b\x00'
p244
tp245
Rp246
Vreadm
p247
sg1
(g5
S'\x1d\xdb\x0b\x00'
p248
tp249
Rp250
Vissu
p251
sg1
(g5
S'\x1e\xdb\x0b\x00'
p252
tp253
Rp254
Ventri
p255
sg1
(g5
S'\x1f\xdb\x0b\x00'
p256
tp257
Rp258
Vrevis
p259
sg1
(g5
S' \xdb\x0b\x00'
p260
tp261
Rp262
Vmayb
p263
sg1
(g5
S'"\xdb\x0b\x00'
p264
tp265
Rp266
Vsort_block
p267
sg1
(g5
S'$\xe3\x00\x00'
p268
tp269
Rp270
Vcluster
p271
sg1
(g5
S'%\xdb\x0b\x00'
p272
tp273
Rp274
Vread_me_fil
p275
sg1
(g5
S"'\x05\x00\x00"
p276
tp277
Rp278
Vlist
p279
sg1
(g5
S'*\x19\x00\x00'
p280
tp281
Rp282
Vextend
p283
sg1
(g5
S'+\x03\x00\x00'
p284
tp285
Rp286
Vread
p287
sg1
(g5
S',\xdb\x0b\x00'
p288
tp289
Rp290
Vtable_of_cont
p291
sg1
(g5
S'.\xdb\x0b\x00'
p292
tp293
Rp294
V\u005cn
p295
sg1
(g5
S'0\xdb\x0b\x00'
p296
tp297
Rp298
Vlibrari
p299
sg1
(g5
S'1\xdb\x0b\x00'
p300
tp301
Rp302
Vinner_block
p303
sg1
(g5
S'2\xdb\x0b\x00'
p304
tp305
Rp306
Vinner_blocks=
p307
sg1
(g5
S'5\xdb\x0b\x00'
p308
tp309
Rp310
Vreplac
p311
sg1
(g5
S'6\xdb\x0b\x00'
p312
tp313
Rp314
Vfinal_readm
p315
sg1
(g5
S'7\xdb\x0b\x00'
p316
tp317
Rp318
Vw+
p319
sg1
(g5
S'8\xdb\x0b\x00'
p320
tp321
Rp322
Vsorted_fil
p323
sg1
(g5
S':\xdb\x0b\x00'
p324
tp325
Rp326
Vreadlin
p327
sg1
(g5
S';\xdb\x0b\x00'
p328
tp329
Rp330
Vtogeth
p331
sg1
(g5
S'<\xdb\x0b\x00'
p332
tp333
Rp334
Vrepres
p335
sg1
(g5
S'>\xdb\x0b\x00'
p336
tp337
Rp338
Vassum
p339
sg1
(g5
S'?\xdb\x0b\x00'
p340
tp341
Rp342
Vindent
p343
sg1
(g5
S'@\xdb\x0b\x00'
p344
tp345
Rp346
Vlast_ind
p347
sg1
(g5
S'A\xdb\x0b\x00'
p348
tp349
Rp350
Vs_line
p351
sg1
(g5
S'C\xdb\x0b\x00'
p352
tp353
Rp354
Vlstrip
p355
sg1
(g5
S'D\xdb\x0b\x00'
p356
tp357
Rp358
Vstartswith
p359
sg1
(g5
S'E\xdb\x0b\x00'
p360
tp361
Rp362
Vindividu
p363
sg1
(g5
S'\\\x1d\x00\x00'
p364
tp365
Rp366
Vgather
p367
sg1
(g5
S'd\x8d\x03\x00'
p368
tp369
Rp370
Vnest
p371
sg1
(g5
S'i\x07\x00\x00'
p372
tp373
Rp374
Vmain
p375
sg1
(g5
S"'\xdb\x0b\x00"
p376
tp377
Rp378
Vread_m
p379
sg1
(g5
S'r\r\x00\x00'
p380
tp381
Rp382
Vlen
p383
sg1
(g5
S'u\x05\x00\x00'
p384
tp385
Rp386
Vwrite
p387
sg1
(g5
S'\xe9\x05\x00\x00'
p388
tp389
Rp390
Vmeant
p391
sg1
(g5
S'\x82\xbd\x03\x00'
p392
tp393
Rp394
Vpars
p395
sg1
(g5
S'\x96\x19\x00\x00'
p396
tp397
Rp398
Varray
p399
sg1
(g5
S'\xa7\x07\x00\x00'
p400
tp401
Rp402
Vcontent
p403
sg1
(g5
S'\xac\x03\x00\x00'
p404
tp405
Rp406
Vdone
p407
sg1
(g5
S'\xb4\x03\x00\x00'
p408
tp409
Rp410
Vend
p411
sg1
(g5
S'\xc4\x05\x00\x00'
p412
tp413
Rp414
Vtaken
p415
sg1
(g5
S'\xc7\xe3\x06\x00'
p416
tp417
Rp418
Vrecurs
p419
sg1
(g5
S'\xd8\x05\x00\x00'
p420
tp421
Rp422
Vactual
p423
sg1
(g5
S'\xe9\xcb\t\x00'
p424
tp425
Rp426
V-1
p427
sg1
(g5
S'\xf5\x03\x00\x00'
p428
tp429
Rp430
Vcall
p431
sI-2
S'<SKIP>'
p432
sg1
(g5
S'\xff\t\x00\x00'
p433
tp434
Rp435
Vmethod
p436
s.